target datalayout = "e-m:e-p270:32:32-p271:32:32-p272:64:64-i64:64-i128:128-f80:128-n8:16:32:64-S128"
target triple = "x86_64-pc-linux-gnu"

%struct.AVRational = type { i32, i32 }
%struct.AVFrame = type { [8 x ptr], [8 x i32], ptr, i32, i32, i32, i32, i32, %struct.AVRational, i64, i64, %struct.AVRational, i32, ptr, i32, i32, [8 x ptr], ptr, i32, ptr, i32, i32, i32, i32, i32, i32, i32, i64, ptr, i32, ptr, ptr, i64, i64, i64, i64, ptr, %struct.AVChannelLayout, i64 }
%struct.AVChannelLayout = type { i32, i32, %union.anon, ptr }
%union.anon = type { i64 }

; Function Attrs: nounwind uwtable
define internal void @get_frame_defaults(ptr noundef %0) #0 {
  %2 = alloca ptr, align 8
  %3 = alloca %struct.AVRational, align 4
  %4 = alloca %struct.AVRational, align 4
  store ptr %0, ptr %2, align 8, !tbaa !4
  %5 = load ptr, ptr %2, align 8, !tbaa !4
  call void @llvm.memset.p0.i64(ptr align 8 %5, i8 0, i64 416, i1 false)
  %6 = load ptr, ptr %2, align 8, !tbaa !4
  %7 = getelementptr inbounds nuw %struct.AVFrame, ptr %6, i32 0, i32 10
  store i64 -9223372036854775808, ptr %7, align 8, !tbaa !9
  %8 = load ptr, ptr %2, align 8, !tbaa !4
  %9 = getelementptr inbounds nuw %struct.AVFrame, ptr %8, i32 0, i32 9
  store i64 -9223372036854775808, ptr %9, align 8, !tbaa !21
  %10 = load ptr, ptr %2, align 8, !tbaa !4
  %11 = getelementptr inbounds nuw %struct.AVFrame, ptr %10, i32 0, i32 27
  store i64 -9223372036854775808, ptr %11, align 8, !tbaa !22
  %12 = load ptr, ptr %2, align 8, !tbaa !4
  %13 = getelementptr inbounds nuw %struct.AVFrame, ptr %12, i32 0, i32 38
  store i64 0, ptr %13, align 8, !tbaa !23
  %14 = load ptr, ptr %2, align 8, !tbaa !4
  %15 = getelementptr inbounds nuw %struct.AVFrame, ptr %14, i32 0, i32 11
  %16 = getelementptr inbounds nuw %struct.AVRational, ptr %3, i32 0, i32 0
  store i32 0, ptr %16, align 4, !tbaa !24
  %17 = getelementptr inbounds nuw %struct.AVRational, ptr %3, i32 0, i32 1
  store i32 1, ptr %17, align 4, !tbaa !25
  call void @llvm.memcpy.p0.p0.i64(ptr align 8 %15, ptr align 4 %3, i64 8, i1 false), !tbaa.struct !26
  %18 = load ptr, ptr %2, align 8, !tbaa !4
  %19 = getelementptr inbounds nuw %struct.AVFrame, ptr %18, i32 0, i32 8
  %20 = getelementptr inbounds nuw %struct.AVRational, ptr %4, i32 0, i32 0
  store i32 0, ptr %20, align 4, !tbaa !24
  %21 = getelementptr inbounds nuw %struct.AVRational, ptr %4, i32 0, i32 1
  store i32 1, ptr %21, align 4, !tbaa !25
  call void @llvm.memcpy.p0.p0.i64(ptr align 4 %19, ptr align 4 %4, i64 8, i1 false), !tbaa.struct !26
  %22 = load ptr, ptr %2, align 8, !tbaa !4
  %23 = getelementptr inbounds nuw %struct.AVFrame, ptr %22, i32 0, i32 6
  store i32 -1, ptr %23, align 4, !tbaa !28
  %24 = load ptr, ptr %2, align 8, !tbaa !4
  %25 = getelementptr inbounds nuw %struct.AVFrame, ptr %24, i32 0, i32 0
  %26 = getelementptr inbounds [8 x ptr], ptr %25, i64 0, i64 0
  %27 = load ptr, ptr %2, align 8, !tbaa !4
  %28 = getelementptr inbounds nuw %struct.AVFrame, ptr %27, i32 0, i32 2
  store ptr %26, ptr %28, align 8, !tbaa !29
  %29 = load ptr, ptr %2, align 8, !tbaa !4
  %30 = getelementptr inbounds nuw %struct.AVFrame, ptr %29, i32 0, i32 23
  store i32 2, ptr %30, align 4, !tbaa !30
  %31 = load ptr, ptr %2, align 8, !tbaa !4
  %32 = getelementptr inbounds nuw %struct.AVFrame, ptr %31, i32 0, i32 24
  store i32 2, ptr %32, align 8, !tbaa !31
  %33 = load ptr, ptr %2, align 8, !tbaa !4
  %34 = getelementptr inbounds nuw %struct.AVFrame, ptr %33, i32 0, i32 25
  store i32 2, ptr %34, align 4, !tbaa !32
  %35 = load ptr, ptr %2, align 8, !tbaa !4
  %36 = getelementptr inbounds nuw %struct.AVFrame, ptr %35, i32 0, i32 22
  store i32 0, ptr %36, align 8, !tbaa !33
  %37 = load ptr, ptr %2, align 8, !tbaa !4
  %38 = getelementptr inbounds nuw %struct.AVFrame, ptr %37, i32 0, i32 26
  store i32 0, ptr %38, align 8, !tbaa !34
  %39 = load ptr, ptr %2, align 8, !tbaa !4
  %40 = getelementptr inbounds nuw %struct.AVFrame, ptr %39, i32 0, i32 21
  store i32 0, ptr %40, align 4, !tbaa !35
  ret void
}

; Function Attrs: nounwind uwtable
define void @av_frame_unref(ptr noundef %0) #0 {
  %2 = alloca ptr, align 8
  %3 = alloca i32, align 4
  %4 = alloca i32, align 4
  store ptr %0, ptr %2, align 8, !tbaa !4
  %5 = load ptr, ptr %2, align 8, !tbaa !4
  %6 = icmp ne ptr %5, null
  br i1 %6, label %8, label %7

7:                                                ; preds = %1
  br label %70

8:                                                ; preds = %1
  %9 = load ptr, ptr %2, align 8, !tbaa !4
  %10 = getelementptr inbounds nuw %struct.AVFrame, ptr %9, i32 0, i32 19
  %11 = load ptr, ptr %2, align 8, !tbaa !4
  %12 = getelementptr inbounds nuw %struct.AVFrame, ptr %11, i32 0, i32 20
  call void @av_frame_side_data_free(ptr noundef %10, ptr noundef %12)
  call void @llvm.lifetime.start.p0(i64 4, ptr %3) #7
  store i32 0, ptr %3, align 4, !tbaa !27
  br label %13

13:                                               ; preds = %24, %8
  %14 = load i32, ptr %3, align 4, !tbaa !27
  %15 = sext i32 %14 to i64
  %16 = icmp ult i64 %15, 8
  br i1 %16, label %18, label %17

17:                                               ; preds = %13
  call void @llvm.lifetime.end.p0(i64 4, ptr %3) #7
  br label %27

18:                                               ; preds = %13
  %19 = load ptr, ptr %2, align 8, !tbaa !4
  %20 = getelementptr inbounds nuw %struct.AVFrame, ptr %19, i32 0, i32 16
  %21 = load i32, ptr %3, align 4, !tbaa !27
  %22 = sext i32 %21 to i64
  %23 = getelementptr inbounds [8 x ptr], ptr %20, i64 0, i64 %22
  call void @av_buffer_unref(ptr noundef %23)
  br label %24

24:                                               ; preds = %18
  %25 = load i32, ptr %3, align 4, !tbaa !27
  %26 = add nsw i32 %25, 1
  store i32 %26, ptr %3, align 4, !tbaa !27
  br label %13, !llvm.loop !38

27:                                               ; preds = %17
  call void @llvm.lifetime.start.p0(i64 4, ptr %4) #7
  store i32 0, ptr %4, align 4, !tbaa !27
  br label %28

28:                                               ; preds = %42, %27
  %29 = load i32, ptr %4, align 4, !tbaa !27
  %30 = load ptr, ptr %2, align 8, !tbaa !4
  %31 = getelementptr inbounds nuw %struct.AVFrame, ptr %30, i32 0, i32 18
  %32 = load i32, ptr %31, align 8, !tbaa !40
  %33 = icmp slt i32 %29, %32
  br i1 %33, label %35, label %34

34:                                               ; preds = %28
  call void @llvm.lifetime.end.p0(i64 4, ptr %4) #7
  br label %45

35:                                               ; preds = %28
  %36 = load ptr, ptr %2, align 8, !tbaa !4
  %37 = getelementptr inbounds nuw %struct.AVFrame, ptr %36, i32 0, i32 17
  %38 = load ptr, ptr %37, align 8, !tbaa !41
  %39 = load i32, ptr %4, align 4, !tbaa !27
  %40 = sext i32 %39 to i64
  %41 = getelementptr inbounds ptr, ptr %38, i64 %40
  call void @av_buffer_unref(ptr noundef %41)
  br label %42

42:                                               ; preds = %35
  %43 = load i32, ptr %4, align 4, !tbaa !27
  %44 = add nsw i32 %43, 1
  store i32 %44, ptr %4, align 4, !tbaa !27
  br label %28, !llvm.loop !42

45:                                               ; preds = %34
  %46 = load ptr, ptr %2, align 8, !tbaa !4
  %47 = getelementptr inbounds nuw %struct.AVFrame, ptr %46, i32 0, i32 17
  call void @av_freep(ptr noundef %47)
  %48 = load ptr, ptr %2, align 8, !tbaa !4
  %49 = getelementptr inbounds nuw %struct.AVFrame, ptr %48, i32 0, i32 28
  call void @av_dict_free(ptr noundef %49)
  %50 = load ptr, ptr %2, align 8, !tbaa !4
  %51 = getelementptr inbounds nuw %struct.AVFrame, ptr %50, i32 0, i32 30
  call void @av_buffer_unref(ptr noundef %51)
  %52 = load ptr, ptr %2, align 8, !tbaa !4
  %53 = getelementptr inbounds nuw %struct.AVFrame, ptr %52, i32 0, i32 31
  call void @av_buffer_unref(ptr noundef %53)
  %54 = load ptr, ptr %2, align 8, !tbaa !4
  %55 = getelementptr inbounds nuw %struct.AVFrame, ptr %54, i32 0, i32 36
  call void @av_refstruct_unref(ptr noundef %55)
  %56 = load ptr, ptr %2, align 8, !tbaa !4
  %57 = getelementptr inbounds nuw %struct.AVFrame, ptr %56, i32 0, i32 2
  %58 = load ptr, ptr %57, align 8, !tbaa !29
  %59 = load ptr, ptr %2, align 8, !tbaa !4
  %60 = getelementptr inbounds nuw %struct.AVFrame, ptr %59, i32 0, i32 0
  %61 = getelementptr inbounds [8 x ptr], ptr %60, i64 0, i64 0
  %62 = icmp ne ptr %58, %61
  br i1 %62, label %63, label %66

63:                                               ; preds = %45
  %64 = load ptr, ptr %2, align 8, !tbaa !4
  %65 = getelementptr inbounds nuw %struct.AVFrame, ptr %64, i32 0, i32 2
  call void @av_freep(ptr noundef %65)
  br label %66

66:                                               ; preds = %63, %45
  %67 = load ptr, ptr %2, align 8, !tbaa !4
  %68 = getelementptr inbounds nuw %struct.AVFrame, ptr %67, i32 0, i32 37
  call void @av_channel_layout_uninit(ptr noundef %68)
  %69 = load ptr, ptr %2, align 8, !tbaa !4
  call void @get_frame_defaults(ptr noundef %69)
  br label %70

70:                                               ; preds = %66, %7
  ret void
}