; Function Attrs: nounwind uwtable
define void @av_frame_unref(ptr noundef %0) local_unnamed_addr #0 {
  %.not = icmp eq ptr %0, null
  br i1 %.not, label %36, label %2

2:                                                ; preds = %1
  %3 = getelementptr inbounds nuw i8, ptr %0, i64 264
  %4 = getelementptr inbounds nuw i8, ptr %0, i64 272
  tail call void @av_frame_side_data_free(ptr noundef nonnull %3, ptr noundef nonnull %4) #8
  %5 = getelementptr inbounds nuw i8, ptr %0, i64 184
  br label %10

.preheader:                                       ; preds = %10
  %6 = getelementptr inbounds nuw i8, ptr %0, i64 256
  %7 = load i32, ptr %6, align 8, !tbaa !30
  %8 = icmp sgt i32 %7, 0
  br i1 %8, label %.lr.ph, label %._crit_edge

.lr.ph:                                           ; preds = %.preheader
  %9 = getelementptr inbounds nuw i8, ptr %0, i64 248
  br label %19

10:                                               ; preds = %2, %10
  %indvars.iv = phi i64 [ 0, %2 ], [ %indvars.iv.next, %10 ]
  %11 = getelementptr inbounds nuw [8 x ptr], ptr %5, i64 0, i64 %indvars.iv
  tail call void @av_buffer_unref(ptr noundef nonnull %11) #8
  %indvars.iv.next = add nuw nsw i64 %indvars.iv, 1
  %exitcond.not = icmp eq i64 %indvars.iv.next, 8
  br i1 %exitcond.not, label %.preheader, label %10, !llvm.loop !31

._crit_edge:                                      ; preds = %19, %.preheader
  %12 = getelementptr inbounds nuw i8, ptr %0, i64 248
  tail call void @av_freep(ptr noundef nonnull %12) #8
  %13 = getelementptr inbounds nuw i8, ptr %0, i64 312
  tail call void @av_dict_free(ptr noundef nonnull %13) #8
  %14 = getelementptr inbounds nuw i8, ptr %0, i64 328
  tail call void @av_buffer_unref(ptr noundef nonnull %14) #8
  %15 = getelementptr inbounds nuw i8, ptr %0, i64 336
  tail call void @av_buffer_unref(ptr noundef nonnull %15) #8
  %16 = getelementptr inbounds nuw i8, ptr %0, i64 376
  tail call void @av_refstruct_unref(ptr noundef nonnull %16) #8
  %17 = getelementptr inbounds nuw i8, ptr %0, i64 96
  %18 = load ptr, ptr %17, align 8, !tbaa !24
  %.not24 = icmp eq ptr %18, %0
  br i1 %.not24, label %26, label %25

19:                                               ; preds = %.lr.ph, %19
  %indvars.iv28 = phi i64 [ 0, %.lr.ph ], [ %indvars.iv.next29, %19 ]
  %20 = load ptr, ptr %9, align 8, !tbaa !33
  %21 = getelementptr inbounds nuw ptr, ptr %20, i64 %indvars.iv28
  tail call void @av_buffer_unref(ptr noundef %21) #8
  %indvars.iv.next29 = add nuw nsw i64 %indvars.iv28, 1
  %22 = load i32, ptr %6, align 8, !tbaa !30
  %23 = sext i32 %22 to i64
  %24 = icmp slt i64 %indvars.iv.next29, %23
  br i1 %24, label %19, label %._crit_edge, !llvm.loop !34

25:                                               ; preds = %._crit_edge
  tail call void @av_freep(ptr noundef nonnull %17) #8
  br label %26

26:                                               ; preds = %25, %._crit_edge
  %27 = getelementptr inbounds nuw i8, ptr %0, i64 384
  tail call void @av_channel_layout_uninit(ptr noundef nonnull %27) #8
  tail call void @llvm.memset.p0.i64(ptr noundef nonnull align 8 dereferenceable(416) %0, i8 0, i64 408, i1 false)
  %28 = getelementptr inbounds nuw i8, ptr %0, i64 144
  store i64 -9223372036854775808, ptr %28, align 8, !tbaa !4
  %29 = getelementptr inbounds nuw i8, ptr %0, i64 136
  store i64 -9223372036854775808, ptr %29, align 8, !tbaa !19
  %30 = getelementptr inbounds nuw i8, ptr %0, i64 304
  store i64 -9223372036854775808, ptr %30, align 8, !tbaa !20
  %31 = getelementptr inbounds nuw i8, ptr %0, i64 408
  store i64 0, ptr %31, align 8, !tbaa !21
  %.sroa.22.0..sroa_idx.i = getelementptr inbounds nuw i8, ptr %0, i64 156
  store i32 1, ptr %.sroa.22.0..sroa_idx.i, align 4, !tbaa !22
  %.sroa.2.0..sroa_idx.i = getelementptr inbounds nuw i8, ptr %0, i64 128
  store i32 1, ptr %.sroa.2.0..sroa_idx.i, align 4, !tbaa !22
  %32 = getelementptr inbounds nuw i8, ptr %0, i64 116
  store i32 -1, ptr %32, align 4, !tbaa !23
  store ptr %0, ptr %17, align 8, !tbaa !24
  %33 = getelementptr inbounds nuw i8, ptr %0, i64 284
  store i32 2, ptr %33, align 4, !tbaa !25
  %34 = getelementptr inbounds nuw i8, ptr %0, i64 288
  store i32 2, ptr %34, align 8, !tbaa !26
  %35 = getelementptr inbounds nuw i8, ptr %0, i64 292
  store i32 2, ptr %35, align 4, !tbaa !27
  br label %36

36:                                               ; preds = %1, %26
  ret void
}